; ModuleID = '62/3422.cpp'
source_filename = "62/3422.cpp"
target datalayout = "e-m:e-p270:32:32-p271:32:32-p272:64:64-i64:64-f80:128-n8:16:32:64-S128"
target triple = "x86_64-pc-linux-gnu"

%"class.std::ios_base::Init" = type { i8 }
%"class.std::basic_istream" = type { i32 (...)**, i64, %"class.std::basic_ios" }
%"class.std::basic_ios" = type { %"class.std::ios_base", %"class.std::basic_ostream"*, i8, i8, %"class.std::basic_streambuf"*, %"class.std::ctype"*, %"class.std::num_put"*, %"class.std::num_get"* }
%"class.std::ios_base" = type { i32 (...)**, i64, i64, i32, i32, i32, %"struct.std::ios_base::_Callback_list"*, %"struct.std::ios_base::_Words", [8 x %"struct.std::ios_base::_Words"], i32, %"struct.std::ios_base::_Words"*, %"class.std::locale" }
%"struct.std::ios_base::_Callback_list" = type { %"struct.std::ios_base::_Callback_list"*, void (i32, %"class.std::ios_base"*, i32)*, i32, i32 }
%"struct.std::ios_base::_Words" = type { i8*, i64 }
%"class.std::locale" = type { %"class.std::locale::_Impl"* }
%"class.std::locale::_Impl" = type { i32, %"class.std::locale::facet"**, i64, %"class.std::locale::facet"**, i8** }
%"class.std::locale::facet" = type <{ i32 (...)**, i32, [4 x i8] }>
%"class.std::basic_ostream" = type { i32 (...)**, %"class.std::basic_ios" }
%"class.std::basic_streambuf" = type { i32 (...)**, i8*, i8*, i8*, i8*, i8*, i8*, %"class.std::locale" }
%"class.std::ctype" = type <{ %"class.std::locale::facet.base", [4 x i8], %struct.__locale_struct*, i8, [7 x i8], i32*, i32*, i16*, i8, [256 x i8], [256 x i8], i8, [6 x i8] }>
%"class.std::locale::facet.base" = type <{ i32 (...)**, i32 }>
%struct.__locale_struct = type { [13 x %struct.__locale_data*], i16*, i32*, i32*, [13 x i8*] }
%struct.__locale_data = type opaque
%"class.std::num_put" = type { %"class.std::locale::facet.base", [4 x i8] }
%"class.std::num_get" = type { %"class.std::locale::facet.base", [4 x i8] }

@_ZStL8__ioinit = internal global %"class.std::ios_base::Init" zeroinitializer, align 1
@__dso_handle = external hidden global i8
@_ZSt3cin = external dso_local global %"class.std::basic_istream", align 8
@_ZSt4cout = external dso_local global %"class.std::basic_ostream", align 8
@.str = private unnamed_addr constant [2 x i8] c" \00", align 1
@llvm.global_ctors = appending global [1 x { i32, void ()*, i8* }] [{ i32, void ()*, i8* } { i32 65535, void ()* @_GLOBAL__sub_I_3422.cpp, i8* null }]

; Function Attrs: noinline uwtable
define internal void @__cxx_global_var_init() #0 section ".text.startup" {
  call void @_ZNSt8ios_base4InitC1Ev(%"class.std::ios_base::Init"* @_ZStL8__ioinit)
  %1 = call i32 @__cxa_atexit(void (i8*)* bitcast (void (%"class.std::ios_base::Init"*)* @_ZNSt8ios_base4InitD1Ev to void (i8*)*), i8* getelementptr inbounds (%"class.std::ios_base::Init", %"class.std::ios_base::Init"* @_ZStL8__ioinit, i32 0, i32 0), i8* @__dso_handle) #3
  ret void
}

declare dso_local void @_ZNSt8ios_base4InitC1Ev(%"class.std::ios_base::Init"*) unnamed_addr #1

; Function Attrs: nounwind
declare dso_local void @_ZNSt8ios_base4InitD1Ev(%"class.std::ios_base::Init"*) unnamed_addr #2

; Function Attrs: nounwind
declare dso_local i32 @__cxa_atexit(void (i8*)*, i8*, i8*) #3

; Function Attrs: noinline norecurse uwtable
define dso_local i32 @main() #4 {
  %1 = alloca i32, align 4
  %2 = alloca [10000 x i8], align 16
  %3 = alloca i32, align 4
  %4 = alloca i32, align 4
  store i32 0, i32* %1, align 4
  %5 = getelementptr inbounds [10000 x i8], [10000 x i8]* %2, i64 0, i64 0
  %6 = call dereferenceable(280) %"class.std::basic_istream"* @_ZNSi7getlineEPcl(%"class.std::basic_istream"* @_ZSt3cin, i8* %5, i64 10000)
  store i32 0, i32* %3, align 4
  br label %7

7:                                                ; preds = %52, %0
  %8 = load i32, i32* %3, align 4
  %9 = sext i32 %8 to i64
  %10 = getelementptr inbounds [10000 x i8], [10000 x i8]* %2, i64 0, i64 0
  %11 = call i64 @strlen(i8* %10) #6
  %12 = icmp ult i64 %9, %11
  br i1 %12, label %13, label %55

13:                                               ; preds = %7
  %14 = load i32, i32* %3, align 4
  %15 = sext i32 %14 to i64
  %16 = getelementptr inbounds [10000 x i8], [10000 x i8]* %2, i64 0, i64 %15
  %17 = load i8, i8* %16, align 1
  %18 = sext i8 %17 to i32
  %19 = icmp ne i32 %18, 32
  br i1 %19, label %20, label %26

20:                                               ; preds = %13
  %21 = load i32, i32* %3, align 4
  %22 = sext i32 %21 to i64
  %23 = getelementptr inbounds [10000 x i8], [10000 x i8]* %2, i64 0, i64 %22
  %24 = load i8, i8* %23, align 1
  %25 = call dereferenceable(272) %"class.std::basic_ostream"* @_ZStlsISt11char_traitsIcEERSt13basic_ostreamIcT_ES5_c(%"class.std::basic_ostream"* dereferenceable(272) @_ZSt4cout, i8 signext %24)
  br label %52

26:                                               ; preds = %13
  %27 = load i32, i32* %3, align 4
  %28 = add nsw i32 %27, 1
  store i32 %28, i32* %4, align 4
  br label %29

29:                                               ; preds = %44, %26
  %30 = load i32, i32* %4, align 4
  %31 = sext i32 %30 to i64
  %32 = getelementptr inbounds [10000 x i8], [10000 x i8]* %2, i64 0, i64 0
  %33 = call i64 @strlen(i8* %32) #6
  %34 = icmp ult i64 %31, %33
  br i1 %34, label %35, label %47

35:                                               ; preds = %29
  %36 = load i32, i32* %4, align 4
  %37 = sext i32 %36 to i64
  %38 = getelementptr inbounds [10000 x i8], [10000 x i8]* %2, i64 0, i64 %37
  %39 = load i8, i8* %38, align 1
  %40 = sext i8 %39 to i32
  %41 = icmp ne i32 %40, 32
  br i1 %41, label %42, label %43

42:                                               ; preds = %35
  br label %47

43:                                               ; preds = %35
  br label %44

44:                                               ; preds = %43
  %45 = load i32, i32* %4, align 4
  %46 = add nsw i32 %45, 1
  store i32 %46, i32* %4, align 4
  br label %29

47:                                               ; preds = %42, %29
  %48 = call dereferenceable(272) %"class.std::basic_ostream"* @_ZStlsISt11char_traitsIcEERSt13basic_ostreamIcT_ES5_PKc(%"class.std::basic_ostream"* dereferenceable(272) @_ZSt4cout, i8* getelementptr inbounds ([2 x i8], [2 x i8]* @.str, i64 0, i64 0))
  %49 = load i32, i32* %4, align 4
  %50 = sub nsw i32 %49, 1
  store i32 %50, i32* %3, align 4
  br label %51

51:                                               ; preds = %47
  br label %52

52:                                               ; preds = %51, %20
  %53 = load i32, i32* %3, align 4
  %54 = add nsw i32 %53, 1
  store i32 %54, i32* %3, align 4
  br label %7

55:                                               ; preds = %7
  ret i32 0
}

declare dso_local dereferenceable(280) %"class.std::basic_istream"* @_ZNSi7getlineEPcl(%"class.std::basic_istream"*, i8*, i64) #1

; Function Attrs: nounwind readonly
declare dso_local i64 @strlen(i8*) #5

declare dso_local dereferenceable(272) %"class.std::basic_ostream"* @_ZStlsISt11char_traitsIcEERSt13basic_ostreamIcT_ES5_c(%"class.std::basic_ostream"* dereferenceable(272), i8 signext) #1

declare dso_local dereferenceable(272) %"class.std::basic_ostream"* @_ZStlsISt11char_traitsIcEERSt13basic_ostreamIcT_ES5_PKc(%"class.std::basic_ostream"* dereferenceable(272), i8*) #1

; Function Attrs: noinline uwtable
define internal void @_GLOBAL__sub_I_3422.cpp() #0 section ".text.startup" {
  call void @__cxx_global_var_init()
  ret void
}


!llvm.module.flags = !{!0}
!llvm.ident = !{!1}

!0 = !{i32 1, !"wchar_size", i32 4}
!1 = !{!"clang version 10.0.0-4ubuntu1 "}
